target datalayout = "e-m:e-p270:32:32-p271:32:32-p272:64:64-i64:64-i128:128-f80:128-n8:16:32:64-S128"
target triple = "x86_64-pc-linux-gnu"

%"struct.Yosys::RTLIL::Const" = type { i16, i8, %union.anon }
%union.anon = type { %"class.std::__cxx11::basic_string" }
%"class.std::__cxx11::basic_string" = type { %"struct.std::__cxx11::basic_string<char>::_Alloc_hider", i64, %union.anon.3 }
%"struct.std::__cxx11::basic_string<char>::_Alloc_hider" = type { ptr }
%union.anon.3 = type { i64, [8 x i8] }

; Function Attrs: mustprogress uwtable
define void @_ZN5Yosys5RTLIL9const_shlERKNS0_5ConstES3_bbi(ptr dead_on_unwind noalias writable sret(%"struct.Yosys::RTLIL::Const") align 8 %0, ptr noundef nonnull align 8 dereferenceable(40) %1, ptr noundef nonnull align 8 dereferenceable(40) %2, i1 noundef zeroext %3, i1 noundef zeroext %4, i32 noundef %5) #4 personality ptr @__gxx_personality_v0 {
  %7 = alloca ptr, align 8
  %8 = alloca ptr, align 8
  %9 = alloca ptr, align 8
  %10 = alloca i8, align 1
  %11 = alloca i8, align 1
  %12 = alloca i32, align 4
  %13 = alloca %"struct.Yosys::RTLIL::Const", align 8
  %14 = alloca ptr, align 8
  %15 = alloca i32, align 4
  store ptr %0, ptr %7, align 8
  store ptr %1, ptr %8, align 8, !tbaa !6
  store ptr %2, ptr %9, align 8, !tbaa !6
  %16 = zext i1 %3 to i8
  store i8 %16, ptr %10, align 1, !tbaa !11
  %17 = zext i1 %4 to i8
  store i8 %17, ptr %11, align 1, !tbaa !11
  store i32 %5, ptr %12, align 4, !tbaa !13
  call void @llvm.lifetime.start.p0(i64 40, ptr %13) #3
  %18 = load ptr, ptr %8, align 8, !tbaa !6
  call void @_ZN5Yosys5RTLIL5ConstC1ERKS1_(ptr noundef nonnull align 8 dereferenceable(40) %13, ptr noundef nonnull align 8 dereferenceable(40) %18)
  %19 = load i32, ptr %12, align 4, !tbaa !13
  %20 = load i8, ptr %10, align 1, !tbaa !11, !range !15, !noundef !16
  %21 = trunc i8 %20 to i1
  invoke void @_ZN5YosysL9extend_u0ERNS_5RTLIL5ConstEib(ptr noundef nonnull align 8 dereferenceable(40) %13, i32 noundef %19, i1 noundef zeroext %21)
          to label %22 unwind label %26

22:                                               ; preds = %6
  %23 = load ptr, ptr %9, align 8, !tbaa !6
  %24 = load i32, ptr %12, align 4, !tbaa !13
  invoke void @_ZN5YosysL18const_shift_workerERKNS_5RTLIL5ConstES3_bbiiNS0_5StateE(ptr dead_on_unwind writable sret(%"struct.Yosys::RTLIL::Const") align 8 %0, ptr noundef nonnull align 8 dereferenceable(40) %13, ptr noundef nonnull align 8 dereferenceable(40) %23, i1 noundef zeroext false, i1 noundef zeroext false, i32 noundef -1, i32 noundef %24, i8 noundef zeroext 0)
          to label %25 unwind label %26

25:                                               ; preds = %22
  call void @_ZN5Yosys5RTLIL5ConstD1Ev(ptr noundef nonnull align 8 dereferenceable(40) %13) #3
  call void @llvm.lifetime.end.p0(i64 40, ptr %13) #3
  ret void

26:                                               ; preds = %22, %6
  %27 = landingpad { ptr, i32 }
          cleanup
  %28 = extractvalue { ptr, i32 } %27, 0
  store ptr %28, ptr %14, align 8
  %29 = extractvalue { ptr, i32 } %27, 1
  store i32 %29, ptr %15, align 4
  call void @_ZN5Yosys5RTLIL5ConstD1Ev(ptr noundef nonnull align 8 dereferenceable(40) %13) #3
  call void @llvm.lifetime.end.p0(i64 40, ptr %13) #3
  br label %30

30:                                               ; preds = %26
  %31 = load ptr, ptr %14, align 8
  %32 = load i32, ptr %15, align 4
  %33 = insertvalue { ptr, i32 } poison, ptr %31, 0
  %34 = insertvalue { ptr, i32 } %33, i32 %32, 1
  resume { ptr, i32 } %34
}