; Function Attrs: mustprogress uwtable
define void @_ZN5Yosys5RTLIL9const_shlERKNS0_5ConstES3_bbi(ptr dead_on_unwind noalias writable sret(%"struct.Yosys::RTLIL::Const") align 8 %0, ptr noundef nonnull align 8 dereferenceable(40) %1, ptr noundef nonnull align 8 dereferenceable(40) %2, i1 noundef zeroext %3, i1 noundef zeroext %4, i32 noundef %5) local_unnamed_addr #3 personality ptr @__gxx_personality_v0 {
  %7 = alloca %"struct.Yosys::RTLIL::Const", align 8
  call void @llvm.lifetime.start.p0(i64 40, ptr nonnull %7) #19
  call void @_ZN5Yosys5RTLIL5ConstC1ERKS1_(ptr noundef nonnull align 8 dereferenceable(40) %7, ptr noundef nonnull align 8 dereferenceable(40) %1)
  invoke fastcc void @_ZN5YosysL9extend_u0ERNS_5RTLIL5ConstEib(ptr noundef nonnull align 8 dereferenceable(40) %7, i32 noundef %5, i1 noundef zeroext %3)
          to label %8 unwind label %10

8:                                                ; preds = %6
  invoke fastcc void @_ZN5YosysL18const_shift_workerERKNS_5RTLIL5ConstES3_bbiiNS0_5StateE(ptr dead_on_unwind noalias writable align 8 %0, ptr noundef nonnull align 8 dereferenceable(40) %7, ptr noundef nonnull align 8 dereferenceable(40) %2, i1 noundef zeroext false, i1 noundef zeroext false, i32 noundef -1, i32 noundef %5, i8 noundef zeroext 0)
          to label %9 unwind label %10

9:                                                ; preds = %8
  call void @_ZN5Yosys5RTLIL5ConstD1Ev(ptr noundef nonnull align 8 dereferenceable(40) %7) #19
  call void @llvm.lifetime.end.p0(i64 40, ptr nonnull %7) #19
  ret void

10:                                               ; preds = %8, %6
  %11 = landingpad { ptr, i32 }
          cleanup
  call void @_ZN5Yosys5RTLIL5ConstD1Ev(ptr noundef nonnull align 8 dereferenceable(40) %7) #19
  call void @llvm.lifetime.end.p0(i64 40, ptr nonnull %7) #19
  resume { ptr, i32 } %11
}